target datalayout = "e-m:e-p270:32:32-p271:32:32-p272:64:64-i64:64-i128:128-f80:128-n8:16:32:64-S128"
target triple = "x86_64-pc-linux-gnu"

%struct._VAConfigAttrib = type { i32, i32 }
%struct.AVCodecContext = type { ptr, i32, i32, ptr, i32, i32, ptr, ptr, ptr, i64, i32, i32, ptr, i32, %struct.AVRational, %struct.AVRational, %struct.AVRational, i32, i32, i32, i32, i32, %struct.AVRational, i32, i32, i32, i32, i32, i32, i32, i32, i32, i32, i32, ptr, ptr, i32, float, float, float, float, float, float, float, float, float, i32, i32, i32, i32, i32, i32, i32, i32, i32, i32, i32, i32, ptr, ptr, ptr, i32, i32, i32, i32, i32, i32, i32, i32, i32, i32, %struct.AVChannelLayout, i32, i32, i32, i32, i32, i32, i32, i32, ptr, i32, i32, i32, float, float, i32, i32, i32, i32, i32, ptr, i64, i64, float, float, i32, i32, ptr, ptr, i32, i32, i32, i32, i32, ptr, ptr, ptr, ptr, i32, i32, [8 x i64], i32, i32, i32, i32, i32, i32, i32, ptr, ptr, i32, i32, i32, i32, i32, i32, i32, i32, i32, i32, ptr, ptr, i32, i32, ptr, ptr, ptr, ptr, i32, i32, i64, i32, i32, i64, ptr, i64, ptr, i32, ptr, i32 }
%struct.AVRational = type { i32, i32 }
%struct.AVChannelLayout = type { i32, i32, %union.anon, ptr }
%union.anon = type { i64 }
%struct.VAAPIEncodeContext = type { %struct.FFHWBaseEncodeContext, ptr, i32, i32, i32, i32, i32, i32, ptr, ptr, i32, i32, i32, i32, i32, i32, [4 x %struct._VAConfigAttrib], i32, i32, i32, ptr, ptr, [4 x i32], [4 x ptr], [4 x i64], i32, %struct._VAEncMiscParameterRateControl, %struct._VAEncMiscParameterHRD, %struct._VAEncMiscParameterFrameRate, %struct._VAEncMiscParameterBufferMaxFrameSize, %struct._VAEncMiscParameterBufferQualityLevel, ptr, ptr, i32, i32, i32, i32, i32, i32, [20 x i32], [22 x i32], [21 x i32], [23 x i32], i32, i32, ptr, i32, i32 }
%struct.FFHWBaseEncodeContext = type { ptr, ptr, ptr, i32, i32, i32, i32, i32, i32, ptr, ptr, ptr, ptr, ptr, ptr, ptr, ptr, [2 x ptr], i32, i64, i64, i64, i64, i64, i64, i64, [112 x i64], i32, i32, i32, i32, i32, i32, i32, i32, i32, i32, i32, i32, i32, i32, i32, i32, ptr, i32, ptr, i32, ptr }
%struct._VAEncMiscParameterRateControl = type { i32, i32, i32, i32, i32, i32, %union.anon.0, i32, i32, i32, i32, [4 x i32] }
%union.anon.0 = type { %struct.anon }
%struct.anon = type { i32 }
%struct._VAEncMiscParameterHRD = type { i32, i32, [4 x i32] }
%struct._VAEncMiscParameterFrameRate = type { i32, %union.anon.1, [4 x i32] }
%union.anon.1 = type { %struct.anon.2 }
%struct.anon.2 = type { i32 }
%struct._VAEncMiscParameterBufferMaxFrameSize = type { i32, i32, [4 x i32] }
%struct._VAEncMiscParameterBufferQualityLevel = type { i32, [4 x i32] }
%struct.VAAPIEncodePicture = type { ptr, i32, i32, i32, ptr, ptr, i32, ptr, i32, ptr, i32, [1024 x i8], i64 }
%struct.VAAPIEncodeSlice = type { i32, i32, i32, i32, i32, ptr }

@.str.46 = private unnamed_addr constant [71 x i8] c"Slice %2d: (%2d, %2d) start at: %4d width:%2d height:%2d (%d blocks).\0A\00", align 1

; Function Attrs: nounwind uwtable
define internal i32 @vaapi_encode_make_tile_slice(ptr noundef %0, ptr noundef %1) #0 {
  %3 = alloca ptr, align 8
  %4 = alloca ptr, align 8
  %5 = alloca ptr, align 8
  %6 = alloca ptr, align 8
  %7 = alloca i32, align 4
  %8 = alloca i32, align 4
  %9 = alloca i32, align 4
  store ptr %0, ptr %3, align 8, !tbaa !4
  store ptr %1, ptr %4, align 8, !tbaa !234
  call void @llvm.lifetime.start.p0(i64 8, ptr %5) #10
  %10 = load ptr, ptr %3, align 8, !tbaa !4
  %11 = getelementptr inbounds nuw %struct.AVCodecContext, ptr %10, i32 0, i32 6
  %12 = load ptr, ptr %11, align 8, !tbaa !11
  store ptr %12, ptr %5, align 8, !tbaa !33
  call void @llvm.lifetime.start.p0(i64 8, ptr %6) #10
  call void @llvm.lifetime.start.p0(i64 4, ptr %7) #10
  call void @llvm.lifetime.start.p0(i64 4, ptr %8) #10
  call void @llvm.lifetime.start.p0(i64 4, ptr %9) #10
  store i32 0, ptr %7, align 4, !tbaa !37
  br label %13

13:                                               ; preds = %123, %2
  %14 = load i32, ptr %7, align 4, !tbaa !37
  %15 = load ptr, ptr %5, align 8, !tbaa !33
  %16 = getelementptr inbounds nuw %struct.VAAPIEncodeContext, ptr %15, i32 0, i32 37
  %17 = load i32, ptr %16, align 8, !tbaa !205
  %18 = icmp slt i32 %14, %17
  br i1 %18, label %19, label %126

19:                                               ; preds = %13
  store i32 0, ptr %8, align 4, !tbaa !37
  br label %20

20:                                               ; preds = %119, %19
  %21 = load i32, ptr %8, align 4, !tbaa !37
  %22 = load ptr, ptr %5, align 8, !tbaa !33
  %23 = getelementptr inbounds nuw %struct.VAAPIEncodeContext, ptr %22, i32 0, i32 38
  %24 = load i32, ptr %23, align 4, !tbaa !204
  %25 = icmp slt i32 %21, %24
  br i1 %25, label %26, label %122

26:                                               ; preds = %20
  %27 = load i32, ptr %8, align 4, !tbaa !37
  %28 = load ptr, ptr %5, align 8, !tbaa !33
  %29 = getelementptr inbounds nuw %struct.VAAPIEncodeContext, ptr %28, i32 0, i32 37
  %30 = load i32, ptr %29, align 8, !tbaa !205
  %31 = mul nsw i32 %27, %30
  %32 = load i32, ptr %7, align 4, !tbaa !37
  %33 = add nsw i32 %31, %32
  store i32 %33, ptr %9, align 4, !tbaa !37
  %34 = load ptr, ptr %4, align 8, !tbaa !234
  %35 = getelementptr inbounds nuw %struct.VAAPIEncodePicture, ptr %34, i32 0, i32 9
  %36 = load ptr, ptr %35, align 8, !tbaa !237
  %37 = load i32, ptr %9, align 4, !tbaa !37
  %38 = sext i32 %37 to i64
  %39 = getelementptr inbounds %struct.VAAPIEncodeSlice, ptr %36, i64 %38
  store ptr %39, ptr %6, align 8, !tbaa !271
  %40 = load i32, ptr %9, align 4, !tbaa !37
  %41 = load ptr, ptr %6, align 8, !tbaa !271
  %42 = getelementptr inbounds nuw %struct.VAAPIEncodeSlice, ptr %41, i32 0, i32 0
  store i32 %40, ptr %42, align 8, !tbaa !331
  %43 = load ptr, ptr %5, align 8, !tbaa !33
  %44 = getelementptr inbounds nuw %struct.VAAPIEncodeContext, ptr %43, i32 0, i32 41
  %45 = load i32, ptr %7, align 4, !tbaa !37
  %46 = sext i32 %45 to i64
  %47 = getelementptr inbounds [21 x i32], ptr %44, i64 0, i64 %46
  %48 = load i32, ptr %47, align 4, !tbaa !37
  %49 = load ptr, ptr %5, align 8, !tbaa !33
  %50 = getelementptr inbounds nuw %struct.VAAPIEncodeContext, ptr %49, i32 0, i32 42
  %51 = load i32, ptr %8, align 4, !tbaa !37
  %52 = sext i32 %51 to i64
  %53 = getelementptr inbounds [23 x i32], ptr %50, i64 0, i64 %52
  %54 = load i32, ptr %53, align 4, !tbaa !37
  %55 = load ptr, ptr %5, align 8, !tbaa !33
  %56 = getelementptr inbounds nuw %struct.VAAPIEncodeContext, ptr %55, i32 0, i32 34
  %57 = load i32, ptr %56, align 4, !tbaa !203
  %58 = mul nsw i32 %54, %57
  %59 = add nsw i32 %48, %58
  %60 = load ptr, ptr %4, align 8, !tbaa !234
  %61 = getelementptr inbounds nuw %struct.VAAPIEncodePicture, ptr %60, i32 0, i32 9
  %62 = load ptr, ptr %61, align 8, !tbaa !237
  %63 = load i32, ptr %9, align 4, !tbaa !37
  %64 = sext i32 %63 to i64
  %65 = getelementptr inbounds %struct.VAAPIEncodeSlice, ptr %62, i64 %64
  %66 = getelementptr inbounds nuw %struct.VAAPIEncodeSlice, ptr %65, i32 0, i32 3
  store i32 %59, ptr %66, align 4, !tbaa !332
  %67 = load ptr, ptr %5, align 8, !tbaa !33
  %68 = getelementptr inbounds nuw %struct.VAAPIEncodeContext, ptr %67, i32 0, i32 40
  %69 = load i32, ptr %8, align 4, !tbaa !37
  %70 = sext i32 %69 to i64
  %71 = getelementptr inbounds [22 x i32], ptr %68, i64 0, i64 %70
  %72 = load i32, ptr %71, align 4, !tbaa !37
  %73 = load ptr, ptr %5, align 8, !tbaa !33
  %74 = getelementptr inbounds nuw %struct.VAAPIEncodeContext, ptr %73, i32 0, i32 39
  %75 = load i32, ptr %7, align 4, !tbaa !37
  %76 = sext i32 %75 to i64
  %77 = getelementptr inbounds [20 x i32], ptr %74, i64 0, i64 %76
  %78 = load i32, ptr %77, align 4, !tbaa !37
  %79 = mul nsw i32 %72, %78
  %80 = load ptr, ptr %4, align 8, !tbaa !234
  %81 = getelementptr inbounds nuw %struct.VAAPIEncodePicture, ptr %80, i32 0, i32 9
  %82 = load ptr, ptr %81, align 8, !tbaa !237
  %83 = load i32, ptr %9, align 4, !tbaa !37
  %84 = sext i32 %83 to i64
  %85 = getelementptr inbounds %struct.VAAPIEncodeSlice, ptr %82, i64 %84
  %86 = getelementptr inbounds nuw %struct.VAAPIEncodeSlice, ptr %85, i32 0, i32 4
  store i32 %79, ptr %86, align 8, !tbaa !333
  %87 = load ptr, ptr %3, align 8, !tbaa !4
  %88 = load i32, ptr %9, align 4, !tbaa !37
  %89 = load ptr, ptr %5, align 8, !tbaa !33
  %90 = getelementptr inbounds nuw %struct.VAAPIEncodeContext, ptr %89, i32 0, i32 41
  %91 = load i32, ptr %7, align 4, !tbaa !37
  %92 = sext i32 %91 to i64
  %93 = getelementptr inbounds [21 x i32], ptr %90, i64 0, i64 %92
  %94 = load i32, ptr %93, align 4, !tbaa !37
  %95 = load ptr, ptr %5, align 8, !tbaa !33
  %96 = getelementptr inbounds nuw %struct.VAAPIEncodeContext, ptr %95, i32 0, i32 42
  %97 = load i32, ptr %8, align 4, !tbaa !37
  %98 = sext i32 %97 to i64
  %99 = getelementptr inbounds [23 x i32], ptr %96, i64 0, i64 %98
  %100 = load i32, ptr %99, align 4, !tbaa !37
  %101 = load ptr, ptr %6, align 8, !tbaa !271
  %102 = getelementptr inbounds nuw %struct.VAAPIEncodeSlice, ptr %101, i32 0, i32 3
  %103 = load i32, ptr %102, align 4, !tbaa !332
  %104 = load ptr, ptr %5, align 8, !tbaa !33
  %105 = getelementptr inbounds nuw %struct.VAAPIEncodeContext, ptr %104, i32 0, i32 39
  %106 = load i32, ptr %7, align 4, !tbaa !37
  %107 = sext i32 %106 to i64
  %108 = getelementptr inbounds [20 x i32], ptr %105, i64 0, i64 %107
  %109 = load i32, ptr %108, align 4, !tbaa !37
  %110 = load ptr, ptr %5, align 8, !tbaa !33
  %111 = getelementptr inbounds nuw %struct.VAAPIEncodeContext, ptr %110, i32 0, i32 40
  %112 = load i32, ptr %8, align 4, !tbaa !37
  %113 = sext i32 %112 to i64
  %114 = getelementptr inbounds [22 x i32], ptr %111, i64 0, i64 %113
  %115 = load i32, ptr %114, align 4, !tbaa !37
  %116 = load ptr, ptr %6, align 8, !tbaa !271
  %117 = getelementptr inbounds nuw %struct.VAAPIEncodeSlice, ptr %116, i32 0, i32 4
  %118 = load i32, ptr %117, align 8, !tbaa !333
  call void (ptr, i32, ptr, ...) @av_log(ptr noundef %87, i32 noundef 48, ptr noundef @.str.46, i32 noundef %88, i32 noundef %94, i32 noundef %100, i32 noundef %103, i32 noundef %109, i32 noundef %115, i32 noundef %118)
  br label %119

119:                                              ; preds = %26
  %120 = load i32, ptr %8, align 4, !tbaa !37
  %121 = add nsw i32 %120, 1
  store i32 %121, ptr %8, align 4, !tbaa !37
  br label %20, !llvm.loop !334

122:                                              ; preds = %20
  br label %123

123:                                              ; preds = %122
  %124 = load i32, ptr %7, align 4, !tbaa !37
  %125 = add nsw i32 %124, 1
  store i32 %125, ptr %7, align 4, !tbaa !37
  br label %13, !llvm.loop !335

126:                                              ; preds = %13
  call void @llvm.lifetime.end.p0(i64 4, ptr %9) #10
  call void @llvm.lifetime.end.p0(i64 4, ptr %8) #10
  call void @llvm.lifetime.end.p0(i64 4, ptr %7) #10
  call void @llvm.lifetime.end.p0(i64 8, ptr %6) #10
  call void @llvm.lifetime.end.p0(i64 8, ptr %5) #10
  ret i32 0
}