; Function Attrs: nounwind uwtable
define internal fastcc void @vaapi_encode_make_tile_slice(ptr noundef %0, ptr noundef readonly captures(none) %1) unnamed_addr #0 {
  %3 = getelementptr inbounds nuw i8, ptr %0, i64 32
  %4 = load ptr, ptr %3, align 8, !tbaa !4
  %5 = getelementptr inbounds nuw i8, ptr %4, i64 1600
  %6 = load i32, ptr %5, align 8, !tbaa !171
  %7 = icmp sgt i32 %6, 0
  br i1 %7, label %.preheader.lr.ph, label %._crit_edge41

.preheader.lr.ph:                                 ; preds = %2
  %8 = getelementptr inbounds nuw i8, ptr %4, i64 1604
  %9 = getelementptr inbounds nuw i8, ptr %1, i64 64
  %10 = getelementptr inbounds nuw i8, ptr %4, i64 1776
  %11 = getelementptr inbounds nuw i8, ptr %4, i64 1860
  %12 = getelementptr inbounds nuw i8, ptr %4, i64 1588
  %13 = getelementptr inbounds nuw i8, ptr %4, i64 1688
  %14 = getelementptr inbounds nuw i8, ptr %4, i64 1608
  %15 = load i32, ptr %8, align 4, !tbaa !170
  %16 = icmp sgt i32 %15, 0
  br i1 %16, label %.preheader, label %._crit_edge41

.preheader:                                       ; preds = %.preheader.lr.ph, %._crit_edge
  %17 = phi i32 [ %50, %._crit_edge ], [ %6, %.preheader.lr.ph ]
  %18 = phi i32 [ %51, %._crit_edge ], [ %15, %.preheader.lr.ph ]
  %indvars.iv44 = phi i64 [ %indvars.iv.next45, %._crit_edge ], [ 0, %.preheader.lr.ph ]
  %19 = icmp sgt i32 %18, 0
  br i1 %19, label %.lr.ph, label %._crit_edge

.lr.ph:                                           ; preds = %.preheader
  %20 = getelementptr inbounds nuw [21 x i32], ptr %10, i64 0, i64 %indvars.iv44
  %21 = getelementptr inbounds nuw [20 x i32], ptr %14, i64 0, i64 %indvars.iv44
  %22 = trunc nuw nsw i64 %indvars.iv44 to i32
  br label %23

23:                                               ; preds = %.lr.ph, %23
  %indvars.iv = phi i64 [ 0, %.lr.ph ], [ %indvars.iv.next, %23 ]
  %24 = load i32, ptr %5, align 8, !tbaa !171
  %25 = trunc nuw nsw i64 %indvars.iv to i32
  %26 = mul nsw i32 %24, %25
  %27 = add nsw i32 %26, %22
  %28 = load ptr, ptr %9, align 8, !tbaa !203
  %29 = sext i32 %27 to i64
  %30 = getelementptr inbounds %struct.VAAPIEncodeSlice, ptr %28, i64 %29
  store i32 %27, ptr %30, align 8, !tbaa !269
  %31 = load i32, ptr %20, align 4, !tbaa !109
  %32 = getelementptr inbounds nuw [23 x i32], ptr %11, i64 0, i64 %indvars.iv
  %33 = load i32, ptr %32, align 4, !tbaa !109
  %34 = load i32, ptr %12, align 4, !tbaa !169
  %35 = mul nsw i32 %34, %33
  %36 = add nsw i32 %35, %31
  %37 = getelementptr inbounds %struct.VAAPIEncodeSlice, ptr %28, i64 %29, i32 3
  store i32 %36, ptr %37, align 4, !tbaa !270
  %38 = getelementptr inbounds nuw [22 x i32], ptr %13, i64 0, i64 %indvars.iv
  %39 = load i32, ptr %38, align 4, !tbaa !109
  %40 = load i32, ptr %21, align 4, !tbaa !109
  %41 = mul nsw i32 %40, %39
  %42 = getelementptr inbounds %struct.VAAPIEncodeSlice, ptr %28, i64 %29, i32 4
  store i32 %41, ptr %42, align 8, !tbaa !271
  %43 = load i32, ptr %20, align 4, !tbaa !109
  %44 = load i32, ptr %32, align 4, !tbaa !109
  %45 = load i32, ptr %21, align 4, !tbaa !109
  %46 = load i32, ptr %38, align 4, !tbaa !109
  tail call void (ptr, i32, ptr, ...) @av_log(ptr noundef %0, i32 noundef 48, ptr noundef nonnull @.str.46, i32 noundef %27, i32 noundef %43, i32 noundef %44, i32 noundef %36, i32 noundef %45, i32 noundef %46, i32 noundef %41) #9
  %indvars.iv.next = add nuw nsw i64 %indvars.iv, 1
  %47 = load i32, ptr %8, align 4, !tbaa !170
  %48 = sext i32 %47 to i64
  %49 = icmp slt i64 %indvars.iv.next, %48
  br i1 %49, label %23, label %._crit_edge.loopexit, !llvm.loop !272

._crit_edge.loopexit:                             ; preds = %23
  %.pre = load i32, ptr %5, align 8, !tbaa !171
  br label %._crit_edge

._crit_edge:                                      ; preds = %._crit_edge.loopexit, %.preheader
  %50 = phi i32 [ %.pre, %._crit_edge.loopexit ], [ %17, %.preheader ]
  %51 = phi i32 [ %47, %._crit_edge.loopexit ], [ %18, %.preheader ]
  %indvars.iv.next45 = add nuw nsw i64 %indvars.iv44, 1
  %52 = sext i32 %50 to i64
  %53 = icmp slt i64 %indvars.iv.next45, %52
  br i1 %53, label %.preheader, label %._crit_edge41, !llvm.loop !273

._crit_edge41:                                    ; preds = %._crit_edge, %.preheader.lr.ph, %2
  ret void
}